#include <math.h>
#include <stdio.h>
#include <stdlib.h>
#include <string.h>

int main()
{
	int sum,n,a[1000],i,b[1000],j,p=0,h=0,k;
	scanf("%d %d",&n,&sum);
	for(i=0;i<n;i++){
		scanf("%d",&a[i]);
		b[i]=a[i];
	}
	for(k=0;k<n;k++){
		for(j=0;j<n;j++){
			h=a[k]+b[j];
			if(h==sum)
				p++;
		}
	}
	if(p==0)
		printf("no\n");
	else
		printf("yes\n");
	return 0;
}
